TN:
SF:/home/tess/Code/KMeans/t/centroid_tests.cpp
FN:12,_ZN19centroid_test_suite21centroid_construction11test_methodEv
FNDA:1,_ZN19centroid_test_suite21centroid_construction11test_methodEv
FN:12,_ZN19centroid_test_suiteL29centroid_construction_invokerEv
FNDA:1,_ZN19centroid_test_suiteL29centroid_construction_invokerEv
FN:62,_ZN19centroid_test_suite17centroid_location11test_methodEv
FNDA:1,_ZN19centroid_test_suite17centroid_location11test_methodEv
FN:62,_ZN19centroid_test_suiteL25centroid_location_invokerEv
FNDA:1,_ZN19centroid_test_suiteL25centroid_location_invokerEv
FN:98,_ZN19centroid_test_suite17centroid_distance11test_methodEv
FNDA:1,_ZN19centroid_test_suite17centroid_distance11test_methodEv
FN:98,_ZN19centroid_test_suiteL25centroid_distance_invokerEv
FNDA:1,_ZN19centroid_test_suiteL25centroid_distance_invokerEv
FN:142,_ZN19centroid_test_suite20centroid_add_release11test_methodEv
FNDA:1,_ZN19centroid_test_suite20centroid_add_release11test_methodEv
FN:142,_ZN19centroid_test_suiteL28centroid_add_release_invokerEv
FNDA:1,_ZN19centroid_test_suiteL28centroid_add_release_invokerEv
FNF:8
FNH:8
DA:12,1
DA:14,1
DA:15,1
DA:16,2
DA:17,1
DA:18,1
DA:19,1
DA:20,1
DA:22,1
DA:23,1
DA:24,1
DA:25,1
DA:26,1
DA:27,1
DA:28,1
DA:29,1
DA:30,1
DA:31,1
DA:32,1
DA:33,1
DA:34,1
DA:35,1
DA:36,1
DA:37,1
DA:38,1
DA:39,1
DA:40,1
DA:41,1
DA:44,2
DA:47,2
DA:48,2
DA:50,21
DA:52,20
DA:53,20
DA:54,20
DA:55,20
DA:56,20
DA:57,20
DA:58,20
DA:60,1
DA:12,1
DA:62,1
DA:64,1
DA:65,1
DA:66,1
DA:67,1
DA:68,1
DA:69,1
DA:70,1
DA:71,1
DA:72,1
DA:73,1
DA:74,1
DA:75,1
DA:76,1
DA:77,1
DA:78,1
DA:79,1
DA:80,1
DA:81,1
DA:82,1
DA:83,1
DA:84,1
DA:87,2
DA:90,2
DA:91,3
DA:93,1
DA:94,1
DA:95,1
DA:96,1
DA:62,1
DA:98,1
DA:100,1
DA:101,1
DA:102,1
DA:103,1
DA:104,1
DA:105,1
DA:106,1
DA:107,1
DA:108,1
DA:109,1
DA:110,1
DA:111,1
DA:112,1
DA:113,1
DA:114,1
DA:115,1
DA:116,1
DA:117,1
DA:118,1
DA:119,1
DA:120,1
DA:123,2
DA:126,2
DA:127,2
DA:133,1
DA:134,1
DA:135,1
DA:137,1
DA:138,1
DA:139,1
DA:140,1
DA:98,1
DA:142,1
DA:144,1
DA:145,1
DA:146,1
DA:147,1
DA:148,1
DA:149,1
DA:150,1
DA:151,1
DA:152,1
DA:153,1
DA:154,1
DA:155,1
DA:156,1
DA:157,1
DA:158,1
DA:159,1
DA:160,1
DA:161,1
DA:162,1
DA:163,1
DA:164,1
DA:166,2
DA:167,2
DA:169,2
DA:170,2
DA:172,2
DA:173,3
DA:175,1
DA:176,1
DA:178,1
DA:179,1
DA:181,1
DA:182,1
DA:184,11
DA:186,10
DA:188,1
DA:192,11
DA:194,10
DA:196,1
DA:200,1
DA:201,1
DA:202,1
DA:204,1
DA:142,1
LF:149
LH:149
end_of_record
SF:/home/tess/Code/KMeans/src/centroid.h
FN:17,_ZN8Centroid5getIDEv
FNDA:1,_ZN8Centroid5getIDEv
FN:18,_ZN8Centroid18getOwnedPixels_ptrEv
FNDA:144,_ZN8Centroid18getOwnedPixels_ptrEv
FN:19,_ZN8Centroid11getLocationEv
FNDA:6,_ZN8Centroid11getLocationEv
FNF:3
FNH:3
DA:17,1
DA:18,144
DA:19,6
LF:3
LH:3
end_of_record
TN:
SF:/home/tess/Code/KMeans/src/centroid.cpp
FN:7,_ZN8CentroidC2Ev
FNDA:1,_ZN8CentroidC2Ev
FN:9,_ZN8CentroidC2ESt6vectorIP5PixelSaIS2_EE
FNDA:5,_ZN8CentroidC2ESt6vectorIP5PixelSaIS2_EE
FN:15,_ZN8Centroid14updateLocationEv
FNDA:5,_ZN8Centroid14updateLocationEv
FN:39,_ZN8Centroid17distanceFromPixelEP5Pixel
FNDA:3,_ZN8Centroid17distanceFromPixelEP5Pixel
FN:53,_ZN8Centroid8addPixelEP5Pixel
FNDA:2,_ZN8Centroid8addPixelEP5Pixel
FN:58,_ZN8Centroid12releasePixelEl
FNDA:3,_ZN8Centroid12releasePixelEl
FNF:6
FNH:6
DA:7,1
DA:9,5
DA:11,5
DA:12,5
DA:13,5
DA:15,5
DA:17,5
DA:18,5
DA:19,5
DA:21,85
DA:23,80
DA:24,80
DA:25,80
DA:28,5
DA:29,5
DA:30,5
DA:32,5
DA:33,5
DA:34,5
DA:36,5
DA:39,3
DA:41,3
DA:42,3
DA:43,3
DA:44,3
DA:45,3
DA:46,3
DA:48,3
DA:49,3
DA:50,3
DA:53,2
DA:55,2
DA:56,2
DA:58,3
DA:60,3
DA:61,24
DA:63,23
DA:65,2
DA:66,2
DA:67,2
DA:70,1
LF:41
LH:41
end_of_record
